target datalayout = "e-m:e-p270:32:32-p271:32:32-p272:64:64-i64:64-i128:128-f80:128-n8:16:32:64-S128"
target triple = "x86_64-pc-linux-gnu"

%struct.lua_State = type { i8, i8, i8, i8, i8, i8, i8, ptr, ptr, ptr, ptr, ptr, ptr, ptr, ptr, i32, i32, i16, i16, i32, ptr, ptr, ptr, ptr, ptr }
%struct.global_State = type { %struct.stringtable, ptr, ptr, i8, i8, ptr, ptr, ptr, i64, i64, i32, i32, i32, [40 x ptr], [40 x ptr], ptr, ptr, ptr, [256 x i64], ptr, %struct.UpVal, [11 x ptr], [11 x ptr], [21 x ptr], %struct.lua_TValue, %struct.lua_TValue, i32, ptr, i64, [4 x i64], %struct.lua_Callbacks, %struct.lua_ExecutionCallbacks, [128 x ptr], [128 x ptr], [128 x ptr], %struct.GCStats }
%struct.stringtable = type { ptr, i32, i32 }
%struct.UpVal = type { i8, i8, i8, i8, ptr, %union.anon }
%union.anon = type { %struct.anon }
%struct.anon = type { ptr, ptr, ptr }
%struct.lua_TValue = type { %union.Value, [1 x i32], i32 }
%union.Value = type { ptr }
%struct.lua_Callbacks = type { ptr, ptr, ptr, ptr, ptr, ptr, ptr, ptr, ptr, ptr }
%struct.lua_ExecutionCallbacks = type { ptr, ptr, ptr, ptr, ptr, ptr, ptr }
%struct.GCStats = type { [32 x i32], i32, i32, i64, i64, i64, double, double, double }
%struct.Proto = type { i8, i8, i8, i8, i8, i8, i8, i8, ptr, ptr, ptr, ptr, ptr, i64, ptr, ptr, ptr, ptr, ptr, ptr, ptr, ptr, ptr, ptr, i32, i32, i32, i32, i32, i32, i32, i32, i32, i32 }

; Function Attrs: mustprogress uwtable
define hidden void @_Z14luaF_freeprotoP9lua_StateP5ProtoP8lua_Page(ptr noundef %0, ptr noundef %1, ptr noundef %2) #0 {
  %4 = alloca ptr, align 8
  %5 = alloca ptr, align 8
  %6 = alloca ptr, align 8
  store ptr %0, ptr %4, align 8, !tbaa !4
  store ptr %1, ptr %5, align 8, !tbaa !21
  store ptr %2, ptr %6, align 8, !tbaa !104
  %7 = load ptr, ptr %4, align 8, !tbaa !4
  %8 = load ptr, ptr %5, align 8, !tbaa !21
  %9 = getelementptr inbounds nuw %struct.Proto, ptr %8, i32 0, i32 9
  %10 = load ptr, ptr %9, align 8, !tbaa !52
  %11 = load ptr, ptr %5, align 8, !tbaa !21
  %12 = getelementptr inbounds nuw %struct.Proto, ptr %11, i32 0, i32 24
  %13 = load i32, ptr %12, align 8, !tbaa !67
  %14 = sext i32 %13 to i64
  %15 = mul i64 %14, 4
  %16 = load ptr, ptr %5, align 8, !tbaa !21
  %17 = getelementptr inbounds nuw %struct.Proto, ptr %16, i32 0, i32 2
  %18 = load i8, ptr %17, align 2, !tbaa !45
  call void @_Z10luaM_free_P9lua_StatePvmh(ptr noundef %7, ptr noundef %10, i64 noundef %15, i8 noundef zeroext %18)
  %19 = load ptr, ptr %4, align 8, !tbaa !4
  %20 = load ptr, ptr %5, align 8, !tbaa !21
  %21 = getelementptr inbounds nuw %struct.Proto, ptr %20, i32 0, i32 10
  %22 = load ptr, ptr %21, align 8, !tbaa !53
  %23 = load ptr, ptr %5, align 8, !tbaa !21
  %24 = getelementptr inbounds nuw %struct.Proto, ptr %23, i32 0, i32 25
  %25 = load i32, ptr %24, align 4, !tbaa !68
  %26 = sext i32 %25 to i64
  %27 = mul i64 %26, 8
  %28 = load ptr, ptr %5, align 8, !tbaa !21
  %29 = getelementptr inbounds nuw %struct.Proto, ptr %28, i32 0, i32 2
  %30 = load i8, ptr %29, align 2, !tbaa !45
  call void @_Z10luaM_free_P9lua_StatePvmh(ptr noundef %19, ptr noundef %22, i64 noundef %27, i8 noundef zeroext %30)
  %31 = load ptr, ptr %4, align 8, !tbaa !4
  %32 = load ptr, ptr %5, align 8, !tbaa !21
  %33 = getelementptr inbounds nuw %struct.Proto, ptr %32, i32 0, i32 8
  %34 = load ptr, ptr %33, align 8, !tbaa !51
  %35 = load ptr, ptr %5, align 8, !tbaa !21
  %36 = getelementptr inbounds nuw %struct.Proto, ptr %35, i32 0, i32 28
  %37 = load i32, ptr %36, align 8, !tbaa !71
  %38 = sext i32 %37 to i64
  %39 = mul i64 %38, 16
  %40 = load ptr, ptr %5, align 8, !tbaa !21
  %41 = getelementptr inbounds nuw %struct.Proto, ptr %40, i32 0, i32 2
  %42 = load i8, ptr %41, align 2, !tbaa !45
  call void @_Z10luaM_free_P9lua_StatePvmh(ptr noundef %31, ptr noundef %34, i64 noundef %39, i8 noundef zeroext %42)
  %43 = load ptr, ptr %5, align 8, !tbaa !21
  %44 = getelementptr inbounds nuw %struct.Proto, ptr %43, i32 0, i32 14
  %45 = load ptr, ptr %44, align 8, !tbaa !57
  %46 = icmp ne ptr %45, null
  br i1 %46, label %47, label %60

47:                                               ; preds = %3
  %48 = load ptr, ptr %4, align 8, !tbaa !4
  %49 = load ptr, ptr %5, align 8, !tbaa !21
  %50 = getelementptr inbounds nuw %struct.Proto, ptr %49, i32 0, i32 14
  %51 = load ptr, ptr %50, align 8, !tbaa !57
  %52 = load ptr, ptr %5, align 8, !tbaa !21
  %53 = getelementptr inbounds nuw %struct.Proto, ptr %52, i32 0, i32 29
  %54 = load i32, ptr %53, align 4, !tbaa !72
  %55 = sext i32 %54 to i64
  %56 = mul i64 %55, 1
  %57 = load ptr, ptr %5, align 8, !tbaa !21
  %58 = getelementptr inbounds nuw %struct.Proto, ptr %57, i32 0, i32 2
  %59 = load i8, ptr %58, align 2, !tbaa !45
  call void @_Z10luaM_free_P9lua_StatePvmh(ptr noundef %48, ptr noundef %51, i64 noundef %56, i8 noundef zeroext %59)
  br label %60

60:                                               ; preds = %47, %3
  %61 = load ptr, ptr %4, align 8, !tbaa !4
  %62 = load ptr, ptr %5, align 8, !tbaa !21
  %63 = getelementptr inbounds nuw %struct.Proto, ptr %62, i32 0, i32 16
  %64 = load ptr, ptr %63, align 8, !tbaa !59
  %65 = load ptr, ptr %5, align 8, !tbaa !21
  %66 = getelementptr inbounds nuw %struct.Proto, ptr %65, i32 0, i32 26
  %67 = load i32, ptr %66, align 8, !tbaa !69
  %68 = sext i32 %67 to i64
  %69 = mul i64 %68, 24
  %70 = load ptr, ptr %5, align 8, !tbaa !21
  %71 = getelementptr inbounds nuw %struct.Proto, ptr %70, i32 0, i32 2
  %72 = load i8, ptr %71, align 2, !tbaa !45
  call void @_Z10luaM_free_P9lua_StatePvmh(ptr noundef %61, ptr noundef %64, i64 noundef %69, i8 noundef zeroext %72)
  %73 = load ptr, ptr %4, align 8, !tbaa !4
  %74 = load ptr, ptr %5, align 8, !tbaa !21
  %75 = getelementptr inbounds nuw %struct.Proto, ptr %74, i32 0, i32 17
  %76 = load ptr, ptr %75, align 8, !tbaa !60
  %77 = load ptr, ptr %5, align 8, !tbaa !21
  %78 = getelementptr inbounds nuw %struct.Proto, ptr %77, i32 0, i32 27
  %79 = load i32, ptr %78, align 4, !tbaa !70
  %80 = sext i32 %79 to i64
  %81 = mul i64 %80, 8
  %82 = load ptr, ptr %5, align 8, !tbaa !21
  %83 = getelementptr inbounds nuw %struct.Proto, ptr %82, i32 0, i32 2
  %84 = load i8, ptr %83, align 2, !tbaa !45
  call void @_Z10luaM_free_P9lua_StatePvmh(ptr noundef %73, ptr noundef %76, i64 noundef %81, i8 noundef zeroext %84)
  %85 = load ptr, ptr %5, align 8, !tbaa !21
  %86 = getelementptr inbounds nuw %struct.Proto, ptr %85, i32 0, i32 20
  %87 = load ptr, ptr %86, align 8, !tbaa !63
  %88 = icmp ne ptr %87, null
  br i1 %88, label %89, label %102

89:                                               ; preds = %60
  %90 = load ptr, ptr %4, align 8, !tbaa !4
  %91 = load ptr, ptr %5, align 8, !tbaa !21
  %92 = getelementptr inbounds nuw %struct.Proto, ptr %91, i32 0, i32 20
  %93 = load ptr, ptr %92, align 8, !tbaa !63
  %94 = load ptr, ptr %5, align 8, !tbaa !21
  %95 = getelementptr inbounds nuw %struct.Proto, ptr %94, i32 0, i32 24
  %96 = load i32, ptr %95, align 8, !tbaa !67
  %97 = sext i32 %96 to i64
  %98 = mul i64 %97, 1
  %99 = load ptr, ptr %5, align 8, !tbaa !21
  %100 = getelementptr inbounds nuw %struct.Proto, ptr %99, i32 0, i32 2
  %101 = load i8, ptr %100, align 2, !tbaa !45
  call void @_Z10luaM_free_P9lua_StatePvmh(ptr noundef %90, ptr noundef %93, i64 noundef %98, i8 noundef zeroext %101)
  br label %102

102:                                              ; preds = %89, %60
  %103 = load ptr, ptr %5, align 8, !tbaa !21
  %104 = getelementptr inbounds nuw %struct.Proto, ptr %103, i32 0, i32 12
  %105 = load ptr, ptr %104, align 8, !tbaa !55
  %106 = icmp ne ptr %105, null
  br i1 %106, label %107, label %116

107:                                              ; preds = %102
  %108 = load ptr, ptr %4, align 8, !tbaa !4
  %109 = getelementptr inbounds nuw %struct.lua_State, ptr %108, i32 0, i32 9
  %110 = load ptr, ptr %109, align 8, !tbaa !23
  %111 = getelementptr inbounds nuw %struct.global_State, ptr %110, i32 0, i32 31
  %112 = getelementptr inbounds nuw %struct.lua_ExecutionCallbacks, ptr %111, i32 0, i32 2
  %113 = load ptr, ptr %112, align 8, !tbaa !112
  %114 = load ptr, ptr %4, align 8, !tbaa !4
  %115 = load ptr, ptr %5, align 8, !tbaa !21
  call void %113(ptr noundef %114, ptr noundef %115)
  br label %116

116:                                              ; preds = %107, %102
  %117 = load ptr, ptr %5, align 8, !tbaa !21
  %118 = getelementptr inbounds nuw %struct.Proto, ptr %117, i32 0, i32 21
  %119 = load ptr, ptr %118, align 8, !tbaa !64
  %120 = icmp ne ptr %119, null
  br i1 %120, label %121, label %134

121:                                              ; preds = %116
  %122 = load ptr, ptr %4, align 8, !tbaa !4
  %123 = load ptr, ptr %5, align 8, !tbaa !21
  %124 = getelementptr inbounds nuw %struct.Proto, ptr %123, i32 0, i32 21
  %125 = load ptr, ptr %124, align 8, !tbaa !64
  %126 = load ptr, ptr %5, align 8, !tbaa !21
  %127 = getelementptr inbounds nuw %struct.Proto, ptr %126, i32 0, i32 33
  %128 = load i32, ptr %127, align 4, !tbaa !76
  %129 = sext i32 %128 to i64
  %130 = mul i64 %129, 1
  %131 = load ptr, ptr %5, align 8, !tbaa !21
  %132 = getelementptr inbounds nuw %struct.Proto, ptr %131, i32 0, i32 2
  %133 = load i8, ptr %132, align 2, !tbaa !45
  call void @_Z10luaM_free_P9lua_StatePvmh(ptr noundef %122, ptr noundef %125, i64 noundef %130, i8 noundef zeroext %133)
  br label %134

134:                                              ; preds = %121, %116
  %135 = load ptr, ptr %4, align 8, !tbaa !4
  %136 = load ptr, ptr %5, align 8, !tbaa !21
  %137 = getelementptr inbounds %struct.Proto, ptr %136, i64 0
  %138 = load ptr, ptr %5, align 8, !tbaa !21
  %139 = getelementptr inbounds nuw %struct.Proto, ptr %138, i32 0, i32 2
  %140 = load i8, ptr %139, align 2, !tbaa !45
  %141 = load ptr, ptr %6, align 8, !tbaa !104
  call void @_Z13luaM_freegco_P9lua_StateP8GCObjectmhP8lua_Page(ptr noundef %135, ptr noundef %137, i64 noundef 176, i8 noundef zeroext %140, ptr noundef %141)
  ret void
}