; Function Attrs: mustprogress uwtable
define hidden void @_Z14luaF_freeprotoP9lua_StateP5ProtoP8lua_Page(ptr noundef %0, ptr noundef %1, ptr noundef %2) local_unnamed_addr #0 {
  %4 = getelementptr inbounds nuw i8, ptr %1, i64 16
  %5 = load ptr, ptr %4, align 8, !tbaa !67
  %6 = getelementptr inbounds nuw i8, ptr %1, i64 136
  %7 = load i32, ptr %6, align 8, !tbaa !68
  %8 = sext i32 %7 to i64
  %9 = shl nsw i64 %8, 2
  %10 = getelementptr inbounds nuw i8, ptr %1, i64 2
  %11 = load i8, ptr %10, align 2, !tbaa !42
  tail call void @_Z10luaM_free_P9lua_StatePvmh(ptr noundef %0, ptr noundef %5, i64 noundef %9, i8 noundef zeroext %11)
  %12 = getelementptr inbounds nuw i8, ptr %1, i64 24
  %13 = load ptr, ptr %12, align 8, !tbaa !69
  %14 = getelementptr inbounds nuw i8, ptr %1, i64 140
  %15 = load i32, ptr %14, align 4, !tbaa !70
  %16 = sext i32 %15 to i64
  %17 = shl nsw i64 %16, 3
  %18 = load i8, ptr %10, align 2, !tbaa !42
  tail call void @_Z10luaM_free_P9lua_StatePvmh(ptr noundef %0, ptr noundef %13, i64 noundef %17, i8 noundef zeroext %18)
  %19 = getelementptr inbounds nuw i8, ptr %1, i64 8
  %20 = load ptr, ptr %19, align 8, !tbaa !71
  %21 = getelementptr inbounds nuw i8, ptr %1, i64 152
  %22 = load i32, ptr %21, align 8, !tbaa !72
  %23 = sext i32 %22 to i64
  %24 = shl nsw i64 %23, 4
  %25 = load i8, ptr %10, align 2, !tbaa !42
  tail call void @_Z10luaM_free_P9lua_StatePvmh(ptr noundef %0, ptr noundef %20, i64 noundef %24, i8 noundef zeroext %25)
  %26 = getelementptr inbounds nuw i8, ptr %1, i64 56
  %27 = load ptr, ptr %26, align 8, !tbaa !73
  %.not = icmp eq ptr %27, null
  br i1 %.not, label %33, label %28

28:                                               ; preds = %3
  %29 = getelementptr inbounds nuw i8, ptr %1, i64 156
  %30 = load i32, ptr %29, align 4, !tbaa !74
  %31 = sext i32 %30 to i64
  %32 = load i8, ptr %10, align 2, !tbaa !42
  tail call void @_Z10luaM_free_P9lua_StatePvmh(ptr noundef %0, ptr noundef nonnull %27, i64 noundef %31, i8 noundef zeroext %32)
  br label %33

33:                                               ; preds = %28, %3
  %34 = getelementptr inbounds nuw i8, ptr %1, i64 72
  %35 = load ptr, ptr %34, align 8, !tbaa !75
  %36 = getelementptr inbounds nuw i8, ptr %1, i64 144
  %37 = load i32, ptr %36, align 8, !tbaa !76
  %38 = sext i32 %37 to i64
  %39 = mul nsw i64 %38, 24
  %40 = load i8, ptr %10, align 2, !tbaa !42
  tail call void @_Z10luaM_free_P9lua_StatePvmh(ptr noundef %0, ptr noundef %35, i64 noundef %39, i8 noundef zeroext %40)
  %41 = getelementptr inbounds nuw i8, ptr %1, i64 80
  %42 = load ptr, ptr %41, align 8, !tbaa !77
  %43 = getelementptr inbounds nuw i8, ptr %1, i64 148
  %44 = load i32, ptr %43, align 4, !tbaa !78
  %45 = sext i32 %44 to i64
  %46 = shl nsw i64 %45, 3
  %47 = load i8, ptr %10, align 2, !tbaa !42
  tail call void @_Z10luaM_free_P9lua_StatePvmh(ptr noundef %0, ptr noundef %42, i64 noundef %46, i8 noundef zeroext %47)
  %48 = getelementptr inbounds nuw i8, ptr %1, i64 104
  %49 = load ptr, ptr %48, align 8, !tbaa !79
  %.not45 = icmp eq ptr %49, null
  br i1 %.not45, label %54, label %50

50:                                               ; preds = %33
  %51 = load i32, ptr %6, align 8, !tbaa !68
  %52 = sext i32 %51 to i64
  %53 = load i8, ptr %10, align 2, !tbaa !42
  tail call void @_Z10luaM_free_P9lua_StatePvmh(ptr noundef %0, ptr noundef nonnull %49, i64 noundef %52, i8 noundef zeroext %53)
  br label %54

54:                                               ; preds = %50, %33
  %55 = getelementptr inbounds nuw i8, ptr %1, i64 40
  %56 = load ptr, ptr %55, align 8, !tbaa !80
  %.not46 = icmp eq ptr %56, null
  br i1 %.not46, label %62, label %57

57:                                               ; preds = %54
  %58 = getelementptr inbounds nuw i8, ptr %0, i64 24
  %59 = load ptr, ptr %58, align 8, !tbaa !19
  %60 = getelementptr inbounds nuw i8, ptr %59, i64 3384
  %61 = load ptr, ptr %60, align 8, !tbaa !81
  tail call void %61(ptr noundef %0, ptr noundef nonnull %1)
  br label %62

62:                                               ; preds = %57, %54
  %63 = getelementptr inbounds nuw i8, ptr %1, i64 112
  %64 = load ptr, ptr %63, align 8, !tbaa !82
  %.not47 = icmp eq ptr %64, null
  br i1 %.not47, label %70, label %65

65:                                               ; preds = %62
  %66 = getelementptr inbounds nuw i8, ptr %1, i64 172
  %67 = load i32, ptr %66, align 4, !tbaa !83
  %68 = sext i32 %67 to i64
  %69 = load i8, ptr %10, align 2, !tbaa !42
  tail call void @_Z10luaM_free_P9lua_StatePvmh(ptr noundef %0, ptr noundef nonnull %64, i64 noundef %68, i8 noundef zeroext %69)
  br label %70

70:                                               ; preds = %65, %62
  %71 = load i8, ptr %10, align 2, !tbaa !42
  tail call void @_Z13luaM_freegco_P9lua_StateP8GCObjectmhP8lua_Page(ptr noundef %0, ptr noundef nonnull %1, i64 noundef 176, i8 noundef zeroext %71, ptr noundef %2)
  ret void
}